target datalayout = "e-m:e-p270:32:32-p271:32:32-p272:64:64-i64:64-i128:128-f80:128-n8:16:32:64-S128"
target triple = "x86_64-pc-linux-gnu"

@ett_dvbci_text = internal global i32 0, align 4
@hf_dvbci_apdu_tag = internal global i32 0, align 4
@.str.1021 = private unnamed_addr constant [5 x i8] c"Text\00", align 1

; Function Attrs: null_pointer_is_valid sspstrong uwtable
define internal i32 @dissect_dvbci_text(ptr noundef %0, ptr noundef %1, i32 noundef %2, ptr noundef %3, ptr noundef %4, i32 noundef %5) #0 {
  %7 = alloca i32, align 4
  %8 = alloca ptr, align 8
  %9 = alloca ptr, align 8
  %10 = alloca i32, align 4
  %11 = alloca ptr, align 8
  %12 = alloca ptr, align 8
  %13 = alloca i32, align 4
  %14 = alloca ptr, align 8
  %15 = alloca ptr, align 8
  %16 = alloca i32, align 4
  %17 = alloca i32, align 4
  %18 = alloca i32, align 4
  %19 = alloca i32, align 4
  store ptr %0, ptr %8, align 8
  store ptr %1, ptr %9, align 8
  store i32 %2, ptr %10, align 4
  store ptr %3, ptr %11, align 8
  store ptr %4, ptr %12, align 8
  store i32 %5, ptr %13, align 4
  call void @llvm.lifetime.start.p0(i64 8, ptr %14) #11
  call void @llvm.lifetime.start.p0(i64 8, ptr %15) #11
  call void @llvm.lifetime.start.p0(i64 4, ptr %16) #11
  call void @llvm.lifetime.start.p0(i64 4, ptr %17) #11
  call void @llvm.lifetime.start.p0(i64 4, ptr %18) #11
  %20 = load i32, ptr %10, align 4
  store i32 %20, ptr %17, align 4
  %21 = load ptr, ptr %8, align 8
  %22 = icmp ne ptr %21, null
  br i1 %22, label %24, label %23

23:                                               ; preds = %6
  store i32 0, ptr %7, align 4
  store i32 1, ptr %19, align 4
  br label %69

24:                                               ; preds = %6
  %25 = load ptr, ptr %9, align 8
  %26 = load i32, ptr %10, align 4
  %27 = call i32 @tvb_get_ntoh24(ptr noundef %25, i32 noundef %26)
  store i32 %27, ptr %16, align 4
  %28 = load i32, ptr %16, align 4
  %29 = icmp ne i32 %28, 10455043
  br i1 %29, label %30, label %34

30:                                               ; preds = %24
  %31 = load i32, ptr %16, align 4
  %32 = icmp ne i32 %31, 10455044
  br i1 %32, label %33, label %34

33:                                               ; preds = %30
  store i32 0, ptr %7, align 4
  store i32 1, ptr %19, align 4
  br label %69

34:                                               ; preds = %30, %24
  %35 = load ptr, ptr %12, align 8
  %36 = load ptr, ptr %9, align 8
  %37 = load i32, ptr %17, align 4
  %38 = load i32, ptr @ett_dvbci_text, align 4
  %39 = load ptr, ptr %8, align 8
  %40 = call ptr @proto_tree_add_subtree(ptr noundef %35, ptr noundef %36, i32 noundef %37, i32 noundef -1, i32 noundef %38, ptr noundef %14, ptr noundef %39)
  store ptr %40, ptr %15, align 8
  %41 = load ptr, ptr %15, align 8
  %42 = load i32, ptr @hf_dvbci_apdu_tag, align 4
  %43 = load ptr, ptr %9, align 8
  %44 = load i32, ptr %10, align 4
  %45 = call ptr @proto_tree_add_item(ptr noundef %41, i32 noundef %42, ptr noundef %43, i32 noundef %44, i32 noundef 3, i32 noundef 0)
  %46 = load i32, ptr %10, align 4
  %47 = add i32 %46, 3
  store i32 %47, ptr %10, align 4
  %48 = load ptr, ptr %11, align 8
  %49 = load ptr, ptr %15, align 8
  %50 = load ptr, ptr %9, align 8
  %51 = load i32, ptr %10, align 4
  %52 = call i32 @dissect_ber_length(ptr noundef %48, ptr noundef %49, ptr noundef %50, i32 noundef %51, ptr noundef %18, ptr noundef null)
  store i32 %52, ptr %10, align 4
  %53 = load ptr, ptr %9, align 8
  %54 = load i32, ptr %10, align 4
  %55 = load i32, ptr %18, align 4
  %56 = load ptr, ptr %11, align 8
  %57 = load ptr, ptr %15, align 8
  %58 = load i32, ptr %13, align 4
  call void @dissect_si_string(ptr noundef %53, i32 noundef %54, i32 noundef %55, ptr noundef %56, ptr noundef %57, i32 noundef %58, ptr noundef @.str.1021, i1 noundef zeroext false)
  %59 = load i32, ptr %18, align 4
  %60 = load i32, ptr %10, align 4
  %61 = add i32 %60, %59
  store i32 %61, ptr %10, align 4
  %62 = load ptr, ptr %14, align 8
  %63 = load i32, ptr %10, align 4
  %64 = load i32, ptr %17, align 4
  %65 = sub i32 %63, %64
  call void @proto_item_set_len(ptr noundef %62, i32 noundef %65)
  %66 = load i32, ptr %10, align 4
  %67 = load i32, ptr %17, align 4
  %68 = sub i32 %66, %67
  store i32 %68, ptr %7, align 4
  store i32 1, ptr %19, align 4
  br label %69

69:                                               ; preds = %34, %33, %23
  call void @llvm.lifetime.end.p0(i64 4, ptr %18) #11
  call void @llvm.lifetime.end.p0(i64 4, ptr %17) #11
  call void @llvm.lifetime.end.p0(i64 4, ptr %16) #11
  call void @llvm.lifetime.end.p0(i64 8, ptr %15) #11
  call void @llvm.lifetime.end.p0(i64 8, ptr %14) #11
  %70 = load i32, ptr %7, align 4
  ret i32 %70
}