; Function Attrs: null_pointer_is_valid sspstrong uwtable
define internal fastcc noundef i32 @dissect_dvbci_text(ptr noundef %0, ptr noundef %1, i32 noundef %2, ptr noundef %3, ptr noundef %4, i32 noundef %5) unnamed_addr #1 {
  %7 = alloca ptr, align 8
  %8 = alloca i32, align 4
  call void @llvm.lifetime.start.p0(i64 8, ptr nonnull %7) #16
  call void @llvm.lifetime.start.p0(i64 4, ptr nonnull %8) #16
  %.not = icmp eq ptr %0, null
  br i1 %.not, label %24, label %9

9:                                                ; preds = %6
  %10 = tail call i32 @tvb_get_ntoh24(ptr noundef %1, i32 noundef %2)
  %11 = add i32 %10, -10455045
  %or.cond = icmp ult i32 %11, -2
  br i1 %or.cond, label %24, label %12

12:                                               ; preds = %9
  %13 = load i32, ptr @ett_dvbci_text, align 4
  %14 = call ptr @proto_tree_add_subtree(ptr noundef %4, ptr noundef %1, i32 noundef %2, i32 noundef -1, i32 noundef %13, ptr noundef nonnull %7, ptr noundef nonnull %0)
  %15 = load i32, ptr @hf_dvbci_apdu_tag, align 4
  %16 = call ptr @proto_tree_add_item(ptr noundef %14, i32 noundef %15, ptr noundef %1, i32 noundef %2, i32 noundef 3, i32 noundef 0)
  %17 = add i32 %2, 3
  %18 = call i32 @dissect_ber_length(ptr noundef %3, ptr noundef %14, ptr noundef %1, i32 noundef %17, ptr noundef nonnull %8, ptr noundef null)
  %19 = load i32, ptr %8, align 4
  call fastcc void @dissect_si_string(ptr noundef %1, i32 noundef %18, i32 noundef %19, ptr noundef %3, ptr noundef %14, i32 noundef %5, ptr noundef nonnull @.str.1021, i1 noundef zeroext false)
  %20 = load i32, ptr %8, align 4
  %21 = load ptr, ptr %7, align 8
  %22 = sub i32 %18, %2
  %23 = add i32 %22, %20
  call void @proto_item_set_len(ptr noundef %21, i32 noundef %23)
  br label %24

24:                                               ; preds = %9, %6, %12
  %.0 = phi i32 [ %23, %12 ], [ 0, %6 ], [ 0, %9 ]
  call void @llvm.lifetime.end.p0(i64 4, ptr nonnull %8) #16
  call void @llvm.lifetime.end.p0(i64 8, ptr nonnull %7) #16
  ret i32 %.0
}